; Function Attrs: nounwind uwtable
define dso_local i64 @pg_read_binary_file_off_len_missing(ptr noundef captures(none) %0) local_unnamed_addr #0 {
  %2 = getelementptr inbounds nuw i8, ptr %0, i64 32
  %3 = load i64, ptr %2, align 8
  %4 = inttoptr i64 %3 to ptr
  %5 = tail call ptr @pg_detoast_datum_packed(ptr noundef %4) #9
  %6 = getelementptr inbounds nuw i8, ptr %0, i64 64
  %7 = load i64, ptr %6, align 8
  %8 = icmp sgt i64 %7, -1
  br i1 %8, label %pg_read_binary_file_common.exit, label %9

9:                                                ; preds = %1
  %10 = tail call zeroext i1 @errstart_cold(i32 noundef 21, ptr noundef null) #10
  tail call void @llvm.assume(i1 %10)
  %11 = tail call i32 @errcode(i32 noundef 50856066) #9
  %12 = tail call i32 (ptr, ...) @errmsg(ptr noundef nonnull @.str.18) #9
  tail call void @errfinish(ptr noundef nonnull @.str.1, i32 noundef 269, ptr noundef nonnull @__func__.pg_read_binary_file_common) #9
  unreachable

pg_read_binary_file_common.exit:                  ; preds = %1
  %13 = getelementptr inbounds nuw i8, ptr %0, i64 80
  %14 = load i64, ptr %13, align 8
  %15 = icmp ne i64 %14, 0
  %16 = getelementptr inbounds nuw i8, ptr %0, i64 48
  %17 = load i64, ptr %16, align 8
  %18 = tail call fastcc ptr @convert_and_check_filename(ptr noundef %5)
  %19 = tail call fastcc ptr @read_binary_file(ptr noundef %18, i64 noundef %17, i64 noundef %7, i1 noundef zeroext %15)
  %.not = icmp eq ptr %19, null
  br i1 %.not, label %20, label %22

20:                                               ; preds = %pg_read_binary_file_common.exit
  %21 = getelementptr inbounds nuw i8, ptr %0, i64 28
  store i8 1, ptr %21, align 4
  br label %24

22:                                               ; preds = %pg_read_binary_file_common.exit
  %23 = ptrtoint ptr %19 to i64
  br label %24

24:                                               ; preds = %22, %20
  %.0 = phi i64 [ %23, %22 ], [ 0, %20 ]
  ret i64 %.0
}